target datalayout = "e-m:e-p270:32:32-p271:32:32-p272:64:64-i64:64-i128:128-f80:128-n8:16:32:64-S128"
target triple = "x86_64-pc-linux-gnu"

%struct.H5HF_hdr_t = type { %struct.H5C_cache_entry_t, i32, i32, i8, i8, i8, i8, %struct.H5HF_dtable_t, i64, i64, i32, i64, i64, %struct.H5O_pline_t, i64, i32, i64, i64, i64, i64, i64, i64, i64, i64, i64, i64, i64, i32, ptr, i64, i8, i8, i8, ptr, i32, ptr, %struct.H5HF_block_iter_t, ptr, i64, i8, i8, i64, i8, i8, i8, i8 }
%struct.H5C_cache_entry_t = type { ptr, i64, i64, ptr, i8, ptr, i8, i8, i8, i8, i32, i8, i8, i8, i8, i8, i32, ptr, i32, i32, i32, i32, i32, i8, i8, ptr, ptr, ptr, ptr, ptr, ptr, i8, i32, i8, i64, ptr, i64, i64, i32, i8, i32, i32, i8, ptr, ptr, ptr }
%struct.H5HF_dtable_t = type { %struct.H5HF_dtable_cparam_t, i64, i32, i32, i32, i32, i32, i32, i32, i64, ptr, ptr, ptr, ptr }
%struct.H5HF_dtable_cparam_t = type { i32, i64, i64, i32, i32 }
%struct.H5O_pline_t = type { %struct.H5O_shared_t, i32, i64, i64, ptr }
%struct.H5O_shared_t = type { i32, ptr, i32, %union.anon }
%union.anon = type { %struct.H5O_mesg_loc_t }
%struct.H5O_mesg_loc_t = type { i32, i64 }
%struct.H5HF_block_iter_t = type { i8, ptr }
%struct.H5HF_hdr_cache_ud_t = type { ptr }

@H5HF_init_g = external global i8, align 1
@H5_libterm_g = external global i8, align 1
@.str.4 = private unnamed_addr constant [103 x i8] c"generated/home/dtcxzyw/WorkSpace/Projects/compilers/llvm-opt-benchmark/bench/hdf5/hdf5/src/H5HFcache.c\00", align 1
@__func__.H5HF__cache_hdr_get_final_load_size = private unnamed_addr constant [36 x i8] c"H5HF__cache_hdr_get_final_load_size\00", align 1
@H5E_HEAP_g = external global i64, align 8
@H5E_CANTDECODE_g = external global i64, align 8
@.str.5 = private unnamed_addr constant [40 x i8] c"can't decode fractal heap header prefix\00", align 1
@.str.6 = private unnamed_addr constant [5 x i8] c"FRHP\00", align 1
@__func__.H5HF__hdr_prefix_decode = private unnamed_addr constant [24 x i8] c"H5HF__hdr_prefix_decode\00", align 1
@H5E_BADVALUE_g = external global i64, align 8
@.str.7 = private unnamed_addr constant [36 x i8] c"wrong fractal heap header signature\00", align 1
@H5E_VERSION_g = external global i64, align 8
@.str.8 = private unnamed_addr constant [34 x i8] c"wrong fractal heap header version\00", align 1

; Function Attrs: nounwind uwtable
define internal i32 @H5HF__hdr_prefix_decode(ptr noundef %0, ptr noundef %1) #0 {
  %3 = alloca ptr, align 8
  %4 = alloca ptr, align 8
  %5 = alloca ptr, align 8
  %6 = alloca i32, align 4
  %7 = alloca i8, align 1
  store ptr %0, ptr %3, align 8, !tbaa !47
  store ptr %1, ptr %4, align 8, !tbaa !185
  call void @llvm.lifetime.start.p0(i64 8, ptr %5) #8
  %8 = load ptr, ptr %4, align 8, !tbaa !185
  %9 = load ptr, ptr %8, align 8, !tbaa !41
  store ptr %9, ptr %5, align 8, !tbaa !41
  call void @llvm.lifetime.start.p0(i64 4, ptr %6) #8
  store i32 0, ptr %6, align 4, !tbaa !43
  call void @llvm.lifetime.start.p0(i64 1, ptr %7) #8
  store i8 0, ptr %7, align 1, !tbaa !11
  %10 = load i8, ptr @H5HF_init_g, align 1, !tbaa !11, !range !13, !noundef !14
  %11 = trunc i8 %10 to i1
  br i1 %11, label %16, label %12

12:                                               ; preds = %2
  %13 = load i8, ptr @H5_libterm_g, align 1, !tbaa !11, !range !13, !noundef !14
  %14 = trunc i8 %13 to i1
  %15 = xor i1 %14, true
  br label %16

16:                                               ; preds = %12, %2
  %17 = phi i1 [ true, %2 ], [ %15, %12 ]
  %18 = xor i1 %17, true
  %19 = xor i1 %18, true
  %20 = zext i1 %19 to i32
  %21 = sext i32 %20 to i64
  %22 = call i64 @llvm.expect.i64(i64 %21, i64 1)
  %23 = icmp ne i64 %22, 0
  br i1 %23, label %24, label %130

24:                                               ; preds = %16
  %25 = load ptr, ptr %5, align 8, !tbaa !41
  %26 = call i32 @memcmp(ptr noundef %25, ptr noundef @.str.6, i64 noundef 4) #9
  %27 = icmp ne i32 %26, 0
  br i1 %27, label %28, label %47

28:                                               ; preds = %24
  br label %29

29:                                               ; preds = %28
  br label %30

30:                                               ; preds = %29
  br label %31

31:                                               ; preds = %30
  %32 = load i64, ptr @H5E_HEAP_g, align 8, !tbaa !40
  %33 = load i64, ptr @H5E_BADVALUE_g, align 8, !tbaa !40
  %34 = call i32 (ptr, ptr, i32, i64, i64, ptr, ...) @H5E_printf_stack(ptr noundef @.str.4, ptr noundef @__func__.H5HF__hdr_prefix_decode, i32 noundef 206, i64 noundef %32, i64 noundef %33, ptr noundef @.str.7)
  br label %35

35:                                               ; preds = %31
  br label %36

36:                                               ; preds = %35
  store i8 1, ptr %7, align 1, !tbaa !11
  %37 = load i8, ptr %7, align 1, !tbaa !11, !range !13, !noundef !14
  %38 = trunc i8 %37 to i1
  %39 = zext i1 %38 to i8
  store i8 %39, ptr %7, align 1, !tbaa !11
  br label %40

40:                                               ; preds = %36
  br label %41

41:                                               ; preds = %40
  br label %42

42:                                               ; preds = %41
  store i32 -1, ptr %6, align 4, !tbaa !43
  br label %129

43:                                               ; No predecessors!
  br label %44

44:                                               ; preds = %43
  br label %45

45:                                               ; preds = %44
  br label %46

46:                                               ; preds = %45
  br label %47

47:                                               ; preds = %46, %24
  %48 = load ptr, ptr %5, align 8, !tbaa !41
  %49 = getelementptr inbounds i8, ptr %48, i64 4
  store ptr %49, ptr %5, align 8, !tbaa !41
  %50 = load ptr, ptr %5, align 8, !tbaa !41
  %51 = getelementptr inbounds nuw i8, ptr %50, i32 1
  store ptr %51, ptr %5, align 8, !tbaa !41
  %52 = load i8, ptr %50, align 1, !tbaa !49
  %53 = zext i8 %52 to i32
  %54 = icmp ne i32 %53, 0
  br i1 %54, label %55, label %74

55:                                               ; preds = %47
  br label %56

56:                                               ; preds = %55
  br label %57

57:                                               ; preds = %56
  br label %58

58:                                               ; preds = %57
  %59 = load i64, ptr @H5E_HEAP_g, align 8, !tbaa !40
  %60 = load i64, ptr @H5E_VERSION_g, align 8, !tbaa !40
  %61 = call i32 (ptr, ptr, i32, i64, i64, ptr, ...) @H5E_printf_stack(ptr noundef @.str.4, ptr noundef @__func__.H5HF__hdr_prefix_decode, i32 noundef 211, i64 noundef %59, i64 noundef %60, ptr noundef @.str.8)
  br label %62

62:                                               ; preds = %58
  br label %63

63:                                               ; preds = %62
  store i8 1, ptr %7, align 1, !tbaa !11
  %64 = load i8, ptr %7, align 1, !tbaa !11, !range !13, !noundef !14
  %65 = trunc i8 %64 to i1
  %66 = zext i1 %65 to i8
  store i8 %66, ptr %7, align 1, !tbaa !11
  br label %67

67:                                               ; preds = %63
  br label %68

68:                                               ; preds = %67
  br label %69

69:                                               ; preds = %68
  store i32 -1, ptr %6, align 4, !tbaa !43
  br label %129

70:                                               ; No predecessors!
  br label %71

71:                                               ; preds = %70
  br label %72

72:                                               ; preds = %71
  br label %73

73:                                               ; preds = %72
  br label %74

74:                                               ; preds = %73, %47
  br label %75

75:                                               ; preds = %74
  %76 = load ptr, ptr %5, align 8, !tbaa !41
  %77 = load i8, ptr %76, align 1, !tbaa !49
  %78 = zext i8 %77 to i32
  %79 = and i32 %78, 255
  %80 = trunc i32 %79 to i16
  %81 = zext i16 %80 to i32
  %82 = load ptr, ptr %3, align 8, !tbaa !47
  %83 = getelementptr inbounds nuw %struct.H5HF_hdr_t, ptr %82, i32 0, i32 1
  store i32 %81, ptr %83, align 8, !tbaa !83
  %84 = load ptr, ptr %5, align 8, !tbaa !41
  %85 = getelementptr inbounds nuw i8, ptr %84, i32 1
  store ptr %85, ptr %5, align 8, !tbaa !41
  %86 = load ptr, ptr %5, align 8, !tbaa !41
  %87 = load i8, ptr %86, align 1, !tbaa !49
  %88 = zext i8 %87 to i32
  %89 = and i32 %88, 255
  %90 = shl i32 %89, 8
  %91 = trunc i32 %90 to i16
  %92 = zext i16 %91 to i32
  %93 = load ptr, ptr %3, align 8, !tbaa !47
  %94 = getelementptr inbounds nuw %struct.H5HF_hdr_t, ptr %93, i32 0, i32 1
  %95 = load i32, ptr %94, align 8, !tbaa !83
  %96 = or i32 %95, %92
  store i32 %96, ptr %94, align 8, !tbaa !83
  %97 = load ptr, ptr %5, align 8, !tbaa !41
  %98 = getelementptr inbounds nuw i8, ptr %97, i32 1
  store ptr %98, ptr %5, align 8, !tbaa !41
  br label %99

99:                                               ; preds = %75
  br label %100

100:                                              ; preds = %99
  br label %101

101:                                              ; preds = %100
  %102 = load ptr, ptr %5, align 8, !tbaa !41
  %103 = load i8, ptr %102, align 1, !tbaa !49
  %104 = zext i8 %103 to i32
  %105 = and i32 %104, 255
  %106 = trunc i32 %105 to i16
  %107 = zext i16 %106 to i32
  %108 = load ptr, ptr %3, align 8, !tbaa !47
  %109 = getelementptr inbounds nuw %struct.H5HF_hdr_t, ptr %108, i32 0, i32 2
  store i32 %107, ptr %109, align 4, !tbaa !44
  %110 = load ptr, ptr %5, align 8, !tbaa !41
  %111 = getelementptr inbounds nuw i8, ptr %110, i32 1
  store ptr %111, ptr %5, align 8, !tbaa !41
  %112 = load ptr, ptr %5, align 8, !tbaa !41
  %113 = load i8, ptr %112, align 1, !tbaa !49
  %114 = zext i8 %113 to i32
  %115 = and i32 %114, 255
  %116 = shl i32 %115, 8
  %117 = trunc i32 %116 to i16
  %118 = zext i16 %117 to i32
  %119 = load ptr, ptr %3, align 8, !tbaa !47
  %120 = getelementptr inbounds nuw %struct.H5HF_hdr_t, ptr %119, i32 0, i32 2
  %121 = load i32, ptr %120, align 4, !tbaa !44
  %122 = or i32 %121, %118
  store i32 %122, ptr %120, align 4, !tbaa !44
  %123 = load ptr, ptr %5, align 8, !tbaa !41
  %124 = getelementptr inbounds nuw i8, ptr %123, i32 1
  store ptr %124, ptr %5, align 8, !tbaa !41
  br label %125

125:                                              ; preds = %101
  br label %126

126:                                              ; preds = %125
  %127 = load ptr, ptr %5, align 8, !tbaa !41
  %128 = load ptr, ptr %4, align 8, !tbaa !185
  store ptr %127, ptr %128, align 8, !tbaa !41
  br label %129

129:                                              ; preds = %126, %69, %42
  br label %130

130:                                              ; preds = %129, %16
  %131 = load i32, ptr %6, align 4, !tbaa !43
  call void @llvm.lifetime.end.p0(i64 1, ptr %7) #8
  call void @llvm.lifetime.end.p0(i64 4, ptr %6) #8
  call void @llvm.lifetime.end.p0(i64 8, ptr %5) #8
  ret i32 %131
}

; Function Attrs: nounwind uwtable
define internal i32 @H5HF__cache_hdr_get_final_load_size(ptr noundef %0, i64 noundef %1, ptr noundef %2, ptr noundef %3) #0 {
  %5 = alloca ptr, align 8
  %6 = alloca i64, align 8
  %7 = alloca ptr, align 8
  %8 = alloca ptr, align 8
  %9 = alloca %struct.H5HF_hdr_t, align 8
  %10 = alloca ptr, align 8
  %11 = alloca ptr, align 8
  %12 = alloca i32, align 4
  %13 = alloca i8, align 1
  store ptr %0, ptr %5, align 8, !tbaa !3
  store i64 %1, ptr %6, align 8, !tbaa !40
  store ptr %2, ptr %7, align 8, !tbaa !3
  store ptr %3, ptr %8, align 8, !tbaa !7
  call void @llvm.lifetime.start.p0(i64 704, ptr %9) #8
  call void @llvm.lifetime.start.p0(i64 8, ptr %10) #8
  %14 = load ptr, ptr %5, align 8, !tbaa !3
  store ptr %14, ptr %10, align 8, !tbaa !41
  call void @llvm.lifetime.start.p0(i64 8, ptr %11) #8
  %15 = load ptr, ptr %7, align 8, !tbaa !3
  store ptr %15, ptr %11, align 8, !tbaa !9
  call void @llvm.lifetime.start.p0(i64 4, ptr %12) #8
  store i32 0, ptr %12, align 4, !tbaa !43
  call void @llvm.lifetime.start.p0(i64 1, ptr %13) #8
  store i8 0, ptr %13, align 1, !tbaa !11
  %16 = load i8, ptr @H5HF_init_g, align 1, !tbaa !11, !range !13, !noundef !14
  %17 = trunc i8 %16 to i1
  br i1 %17, label %22, label %18

18:                                               ; preds = %4
  %19 = load i8, ptr @H5_libterm_g, align 1, !tbaa !11, !range !13, !noundef !14
  %20 = trunc i8 %19 to i1
  %21 = xor i1 %20, true
  br label %22

22:                                               ; preds = %18, %4
  %23 = phi i1 [ true, %4 ], [ %21, %18 ]
  %24 = xor i1 %23, true
  %25 = xor i1 %24, true
  %26 = zext i1 %25 to i32
  %27 = sext i32 %26 to i64
  %28 = call i64 @llvm.expect.i64(i64 %27, i64 1)
  %29 = icmp ne i64 %28, 0
  br i1 %29, label %30, label %72

30:                                               ; preds = %22
  %31 = call i32 @H5HF__hdr_prefix_decode(ptr noundef %9, ptr noundef %10)
  %32 = icmp slt i32 %31, 0
  br i1 %32, label %33, label %52

33:                                               ; preds = %30
  br label %34

34:                                               ; preds = %33
  br label %35

35:                                               ; preds = %34
  br label %36

36:                                               ; preds = %35
  %37 = load i64, ptr @H5E_HEAP_g, align 8, !tbaa !40
  %38 = load i64, ptr @H5E_CANTDECODE_g, align 8, !tbaa !40
  %39 = call i32 (ptr, ptr, i32, i64, i64, ptr, ...) @H5E_printf_stack(ptr noundef @.str.4, ptr noundef @__func__.H5HF__cache_hdr_get_final_load_size, i32 noundef 383, i64 noundef %37, i64 noundef %38, ptr noundef @.str.5)
  br label %40

40:                                               ; preds = %36
  br label %41

41:                                               ; preds = %40
  store i8 1, ptr %13, align 1, !tbaa !11
  %42 = load i8, ptr %13, align 1, !tbaa !11, !range !13, !noundef !14
  %43 = trunc i8 %42 to i1
  %44 = zext i1 %43 to i8
  store i8 %44, ptr %13, align 1, !tbaa !11
  br label %45

45:                                               ; preds = %41
  br label %46

46:                                               ; preds = %45
  br label %47

47:                                               ; preds = %46
  store i32 -1, ptr %12, align 4, !tbaa !43
  br label %71

48:                                               ; No predecessors!
  br label %49

49:                                               ; preds = %48
  br label %50

50:                                               ; preds = %49
  br label %51

51:                                               ; preds = %50
  br label %52

52:                                               ; preds = %51, %30
  %53 = getelementptr inbounds nuw %struct.H5HF_hdr_t, ptr %9, i32 0, i32 2
  %54 = load i32, ptr %53, align 4, !tbaa !44
  %55 = icmp ugt i32 %54, 0
  br i1 %55, label %56, label %70

56:                                               ; preds = %52
  %57 = load ptr, ptr %11, align 8, !tbaa !9
  %58 = getelementptr inbounds nuw %struct.H5HF_hdr_cache_ud_t, ptr %57, i32 0, i32 0
  %59 = load ptr, ptr %58, align 8, !tbaa !15
  %60 = call zeroext i8 @H5F_sizeof_size(ptr noundef %59)
  %61 = zext i8 %60 to i32
  %62 = add i32 %61, 4
  %63 = getelementptr inbounds nuw %struct.H5HF_hdr_t, ptr %9, i32 0, i32 2
  %64 = load i32, ptr %63, align 4, !tbaa !44
  %65 = add i32 %62, %64
  %66 = zext i32 %65 to i64
  %67 = load ptr, ptr %8, align 8, !tbaa !7
  %68 = load i64, ptr %67, align 8, !tbaa !40
  %69 = add i64 %68, %66
  store i64 %69, ptr %67, align 8, !tbaa !40
  br label %70

70:                                               ; preds = %56, %52
  br label %71

71:                                               ; preds = %70, %47
  br label %72

72:                                               ; preds = %71, %22
  %73 = load i32, ptr %12, align 4, !tbaa !43
  call void @llvm.lifetime.end.p0(i64 1, ptr %13) #8
  call void @llvm.lifetime.end.p0(i64 4, ptr %12) #8
  call void @llvm.lifetime.end.p0(i64 8, ptr %11) #8
  call void @llvm.lifetime.end.p0(i64 8, ptr %10) #8
  call void @llvm.lifetime.end.p0(i64 704, ptr %9) #8
  ret i32 %73
}